target datalayout = "e-m:e-p270:32:32-p271:32:32-p272:64:64-i64:64-i128:128-f80:128-n8:16:32:64-S128"
target triple = "x86_64-pc-linux-gnu"

%struct._zend_executor_globals = type { %struct._zval_struct, %struct._zval_struct, [32 x ptr], ptr, ptr, %struct._zend_array, %struct._zend_array, ptr, i32, i32, ptr, ptr, ptr, ptr, ptr, ptr, i64, ptr, ptr, i32, i32, i64, i32, i32, i32, i8, i8, %struct.zend_atomic_bool_s, %struct.zend_atomic_bool_s, ptr, i64, ptr, ptr, %struct._zend_array, %struct._zend_array, i32, i8, %struct._zval_struct, %struct._zval_struct, %struct._zend_stack, %struct._zend_stack, %struct._zend_stack, ptr, i32, i32, i64, ptr, ptr, ptr, %struct._zend_objects_store, ptr, ptr, ptr, [3 x %struct._zend_op], ptr, i8, i8, i64, i32, i32, ptr, [16 x %struct._HashTableIterator], ptr, %union._zend_function, %struct._zend_op, %struct._zend_array, i64, %struct.zend_get_gc_buffer, ptr, ptr, ptr, i64, i8, i32, ptr, ptr, i64, %struct._zend_call_stack, i64, i64, [6 x ptr] }
%struct.zend_atomic_bool_s = type { i8 }
%struct._zval_struct = type { %union._zend_value, %union.anon.0, %union.anon.3 }
%union._zend_value = type { i64 }
%union.anon.0 = type { i32 }
%union.anon.3 = type { i32 }
%struct._zend_stack = type { i32, i32, i32, ptr }
%struct._zend_objects_store = type { ptr, i32, i32, i32 }
%struct._HashTableIterator = type { ptr, i32, i32 }
%union._zend_function = type { %struct._zend_op_array }
%struct._zend_op_array = type { i8, [3 x i8], i32, ptr, ptr, ptr, i32, i32, ptr, ptr, ptr, ptr, i32, i32, i32, i32, ptr, ptr, ptr, ptr, ptr, i32, i32, ptr, ptr, ptr, i32, i32, i32, i32, ptr, ptr, [6 x ptr] }
%struct._zend_op = type { ptr, %union._znode_op, %union._znode_op, %union._znode_op, i32, i32, i8, i8, i8, i8 }
%union._znode_op = type { i32 }
%struct._zend_array = type { %struct._zend_refcounted_h, %union.anon.4, i32, %union.anon.6, i32, i32, i32, i32, i64, ptr }
%struct._zend_refcounted_h = type { i32, %union.anon }
%union.anon = type { i32 }
%union.anon.4 = type { i32 }
%union.anon.6 = type { ptr }
%struct.zend_get_gc_buffer = type { ptr, ptr, ptr }
%struct._zend_call_stack = type { ptr, i64 }
%struct._zend_string = type { %struct._zend_refcounted_h, i64, i64, [1 x i8] }
%struct._dom_object = type { ptr, ptr, ptr, %struct._zend_object }
%struct._zend_object = type { %struct._zend_refcounted_h, i32, ptr, ptr, ptr, [1 x %struct._zval_struct] }
%struct._zend_execute_data = type { ptr, ptr, ptr, ptr, %struct._zval_struct, ptr, ptr, ptr, ptr }
%struct._zend_class_entry = type { i8, ptr, %union.anon.8, i32, i32, i32, i32, ptr, ptr, ptr, %struct._zend_array, %struct._zend_array, %struct._zend_array, ptr, ptr, ptr, ptr, ptr, ptr, ptr, ptr, ptr, ptr, ptr, ptr, ptr, ptr, ptr, ptr, ptr, ptr, ptr, %union.anon.9, ptr, ptr, ptr, ptr, i32, i32, %union.anon.10, ptr, ptr, ptr, ptr, i32, ptr, ptr, %union.anon.11 }
%union.anon.8 = type { ptr }
%union.anon.9 = type { ptr }
%union.anon.10 = type { ptr }
%union.anon.11 = type { %struct.anon.12 }
%struct.anon.12 = type { ptr, i32, i32 }
%struct._php_libxml_node_ptr = type { ptr, i32, ptr }

@dom_node_class_entry = external global ptr, align 8
@executor_globals = external global %struct._zend_executor_globals, align 8
@.str.11 = private unnamed_addr constant [18 x i8] c"Couldn't fetch %s\00", align 1
@.str.15 = private unnamed_addr constant [2 x i8] c"O\00", align 1

; Function Attrs: nounwind uwtable
define internal ptr @php_dom_obj_from_obj(ptr noundef %0) #0 {
  %2 = alloca ptr, align 8
  store ptr %0, ptr %2, align 8
  %3 = load ptr, ptr %2, align 8
  %4 = getelementptr inbounds i8, ptr %3, i64 -24
  ret ptr %4
}

; Function Attrs: nounwind uwtable
define hidden void @zim_DOMNode_isSameNode(ptr noundef %0, ptr noundef %1) #0 {
  %3 = alloca ptr, align 8
  %4 = alloca ptr, align 8
  %5 = alloca ptr, align 8
  %6 = alloca ptr, align 8
  %7 = alloca ptr, align 8
  %8 = alloca ptr, align 8
  %9 = alloca ptr, align 8
  %10 = alloca ptr, align 8
  store ptr %0, ptr %3, align 8
  store ptr %1, ptr %4, align 8
  %11 = load ptr, ptr %3, align 8
  %12 = getelementptr inbounds %struct._zend_execute_data, ptr %11, i32 0, i32 4
  store ptr %12, ptr %5, align 8
  %13 = load ptr, ptr %3, align 8
  %14 = getelementptr inbounds %struct._zend_execute_data, ptr %13, i32 0, i32 4
  %15 = getelementptr inbounds %struct._zval_struct, ptr %14, i32 0, i32 2
  %16 = load i32, ptr %15, align 4
  %17 = load ptr, ptr @dom_node_class_entry, align 8
  %18 = call i32 (i32, ptr, ...) @zend_parse_parameters(i32 noundef %16, ptr noundef @.str.15, ptr noundef %6, ptr noundef %17)
  %19 = icmp eq i32 %18, -1
  br i1 %19, label %20, label %25

20:                                               ; preds = %2
  br label %21

21:                                               ; preds = %20
  %22 = load ptr, ptr getelementptr inbounds (%struct._zend_executor_globals, ptr @executor_globals, i32 0, i32 50), align 8
  %23 = icmp ne ptr %22, null
  call void @llvm.assume(i1 %23)
  br label %107

24:                                               ; No predecessors!
  br label %25

25:                                               ; preds = %24, %2
  %26 = load ptr, ptr %5, align 8
  %27 = getelementptr inbounds %struct._zval_struct, ptr %26, i32 0, i32 0
  %28 = load ptr, ptr %27, align 8
  %29 = call ptr @php_dom_obj_from_obj(ptr noundef %28)
  store ptr %29, ptr %9, align 8
  %30 = load ptr, ptr %9, align 8
  %31 = getelementptr inbounds %struct._dom_object, ptr %30, i32 0, i32 0
  %32 = load ptr, ptr %31, align 8
  %33 = icmp eq ptr %32, null
  %34 = xor i1 %33, true
  %35 = xor i1 %34, true
  %36 = zext i1 %35 to i32
  %37 = sext i32 %36 to i64
  %38 = icmp ne i64 %37, 0
  br i1 %38, label %39, label %52

39:                                               ; preds = %25
  %40 = load ptr, ptr %9, align 8
  %41 = getelementptr inbounds %struct._dom_object, ptr %40, i32 0, i32 3
  %42 = getelementptr inbounds %struct._zend_object, ptr %41, i32 0, i32 2
  %43 = load ptr, ptr %42, align 8
  %44 = getelementptr inbounds %struct._zend_class_entry, ptr %43, i32 0, i32 1
  %45 = load ptr, ptr %44, align 8
  %46 = getelementptr inbounds %struct._zend_string, ptr %45, i32 0, i32 3
  %47 = getelementptr inbounds [1 x i8], ptr %46, i64 0, i64 0
  call void (ptr, ptr, ...) @zend_throw_error(ptr noundef null, ptr noundef @.str.11, ptr noundef %47)
  br label %48

48:                                               ; preds = %39
  %49 = load ptr, ptr getelementptr inbounds (%struct._zend_executor_globals, ptr @executor_globals, i32 0, i32 50), align 8
  %50 = icmp ne ptr %49, null
  call void @llvm.assume(i1 %50)
  br label %107

51:                                               ; No predecessors!
  br label %52

52:                                               ; preds = %51, %25
  %53 = load ptr, ptr %9, align 8
  %54 = getelementptr inbounds %struct._dom_object, ptr %53, i32 0, i32 0
  %55 = load ptr, ptr %54, align 8
  %56 = getelementptr inbounds %struct._php_libxml_node_ptr, ptr %55, i32 0, i32 0
  %57 = load ptr, ptr %56, align 8
  store ptr %57, ptr %8, align 8
  %58 = load ptr, ptr %6, align 8
  %59 = getelementptr inbounds %struct._zval_struct, ptr %58, i32 0, i32 0
  %60 = load ptr, ptr %59, align 8
  %61 = call ptr @php_dom_obj_from_obj(ptr noundef %60)
  store ptr %61, ptr %10, align 8
  %62 = load ptr, ptr %10, align 8
  %63 = getelementptr inbounds %struct._dom_object, ptr %62, i32 0, i32 0
  %64 = load ptr, ptr %63, align 8
  %65 = icmp eq ptr %64, null
  %66 = xor i1 %65, true
  %67 = xor i1 %66, true
  %68 = zext i1 %67 to i32
  %69 = sext i32 %68 to i64
  %70 = icmp ne i64 %69, 0
  br i1 %70, label %71, label %84

71:                                               ; preds = %52
  %72 = load ptr, ptr %10, align 8
  %73 = getelementptr inbounds %struct._dom_object, ptr %72, i32 0, i32 3
  %74 = getelementptr inbounds %struct._zend_object, ptr %73, i32 0, i32 2
  %75 = load ptr, ptr %74, align 8
  %76 = getelementptr inbounds %struct._zend_class_entry, ptr %75, i32 0, i32 1
  %77 = load ptr, ptr %76, align 8
  %78 = getelementptr inbounds %struct._zend_string, ptr %77, i32 0, i32 3
  %79 = getelementptr inbounds [1 x i8], ptr %78, i64 0, i64 0
  call void (ptr, ptr, ...) @zend_throw_error(ptr noundef null, ptr noundef @.str.11, ptr noundef %79)
  br label %80

80:                                               ; preds = %71
  %81 = load ptr, ptr getelementptr inbounds (%struct._zend_executor_globals, ptr @executor_globals, i32 0, i32 50), align 8
  %82 = icmp ne ptr %81, null
  call void @llvm.assume(i1 %82)
  br label %107

83:                                               ; No predecessors!
  br label %84

84:                                               ; preds = %83, %52
  %85 = load ptr, ptr %10, align 8
  %86 = getelementptr inbounds %struct._dom_object, ptr %85, i32 0, i32 0
  %87 = load ptr, ptr %86, align 8
  %88 = getelementptr inbounds %struct._php_libxml_node_ptr, ptr %87, i32 0, i32 0
  %89 = load ptr, ptr %88, align 8
  store ptr %89, ptr %7, align 8
  %90 = load ptr, ptr %8, align 8
  %91 = load ptr, ptr %7, align 8
  %92 = icmp eq ptr %90, %91
  br i1 %92, label %93, label %100

93:                                               ; preds = %84
  br label %94

94:                                               ; preds = %93
  br label %95

95:                                               ; preds = %94
  %96 = load ptr, ptr %4, align 8
  %97 = getelementptr inbounds %struct._zval_struct, ptr %96, i32 0, i32 1
  store i32 3, ptr %97, align 8
  br label %98

98:                                               ; preds = %95
  br label %107

99:                                               ; No predecessors!
  br label %107

100:                                              ; preds = %84
  br label %101

101:                                              ; preds = %100
  br label %102

102:                                              ; preds = %101
  %103 = load ptr, ptr %4, align 8
  %104 = getelementptr inbounds %struct._zval_struct, ptr %103, i32 0, i32 1
  store i32 2, ptr %104, align 8
  br label %105

105:                                              ; preds = %102
  br label %107

106:                                              ; No predecessors!
  br label %107

107:                                              ; preds = %106, %105, %99, %98, %80, %48, %21
  ret void
}